target datalayout = "e-m:e-p270:32:32-p271:32:32-p272:64:64-i64:64-i128:128-f80:128-n8:16:32:64-S128"
target triple = "x86_64-pc-linux-gnu"

%struct.slurm_conf_t = type { i64, ptr, i16, ptr, ptr, ptr, ptr, ptr, i16, ptr, ptr, ptr, ptr, ptr, ptr, ptr, i16, ptr, ptr, ptr, ptr, i16, ptr, ptr, ptr, i64, ptr, ptr, ptr, ptr, i16, ptr, ptr, i16, i32, ptr, i32, ptr, i32, i32, ptr, ptr, i64, i64, ptr, i16, i16, ptr, i32, i32, ptr, i32, ptr, i32, i16, i16, i16, ptr, i16, i16, ptr, ptr, i32, i16, i16, ptr, i32, i16, ptr, ptr, ptr, ptr, i16, ptr, ptr, ptr, ptr, i32, ptr, ptr, ptr, ptr, i16, i16, ptr, i32, i32, i32, i16, i16, ptr, ptr, i16, ptr, ptr, i32, i32, i32, i32, i32, i64, i32, i32, i16, ptr, ptr, i32, ptr, ptr, ptr, i16, i32, ptr, ptr, i16, ptr, ptr, i32, i16, ptr, ptr, ptr, ptr, i32, i32, i16, i16, i32, ptr, i16, ptr, i32, i32, i32, i32, i32, i32, ptr, i16, ptr, ptr, i32, i16, ptr, i32, i16, i16, ptr, ptr, ptr, i16, ptr, ptr, ptr, ptr, i16, i16, ptr, i16, ptr, i16, ptr, i16, ptr, i16, ptr, ptr, ptr, ptr, i16, ptr, ptr, ptr, i32, ptr, i32, ptr, ptr, i16, ptr, ptr, i32, i16, ptr, ptr, i16, i16, ptr, i16, ptr, ptr, ptr, i32, ptr, i16, i16, ptr, ptr, ptr, ptr, ptr, ptr, ptr, ptr, i16, i32, i16, ptr, ptr, ptr, ptr, i32, ptr, ptr, ptr, i16, ptr, ptr, ptr, i16, ptr, i16, ptr, i16, i16, ptr }
%struct.job_record = type { i32, ptr, ptr, ptr, ptr, i16, i32, i32, i32, ptr, i32, ptr, ptr, i16, ptr, double, i64, ptr, ptr, ptr, ptr, ptr, ptr, i32, ptr, i32, i64, i64, i32, i32, ptr, i16, i64, i64, i8, i32, ptr, ptr, ptr, ptr, ptr, ptr, ptr, ptr, i32, ptr, ptr, i32, ptr, i32, ptr, i32, ptr, i32, ptr, ptr, ptr, ptr, ptr, ptr, i32, i16, i64, ptr, ptr, ptr, ptr, %struct.acct_policy_limit_set_t, i16, ptr, ptr, ptr, ptr, ptr, i32, ptr, ptr, ptr, ptr, ptr, i32, i32, ptr, ptr, ptr, i16, ptr, ptr, i8, ptr, ptr, i64, i64, i8, i32, i32, i8, i32, ptr, i32, i64, i32, ptr, ptr, ptr, i8, i16, i64, i32, ptr, ptr, ptr, ptr, ptr, i16, i32, ptr, ptr, ptr, ptr, i32, ptr, i32, i16, i64, ptr, i32, i32, ptr, i64, ptr, ptr, i64, i32, i32, i64, i32, i32, ptr, ptr, ptr, ptr, ptr, ptr, ptr, ptr, ptr, ptr, ptr, ptr, i32, ptr, i16, i16, i16, i16, ptr, i32, i32, i8, i64 }
%struct.acct_policy_limit_set_t = type { i16, i16, ptr }
%struct.job_details_t = type { i32, ptr, i64, ptr, i32, ptr, i64, ptr, i16, i16, ptr, i16, i32, i32, i32, i16, ptr, i16, ptr, ptr, ptr, i16, ptr, ptr, ptr, ptr, i32, ptr, ptr, ptr, ptr, ptr, i32, i32, i32, ptr, ptr, i16, i32, i32, i32, i32, i32, i32, i16, i16, i32, i8, i8, i32, i32, i64, i64, i16, i32, ptr, ptr, i8, ptr, i32, ptr, i64, ptr, ptr, i16, i16, i16, i8, ptr, ptr, ptr, ptr, ptr, ptr, i64, i32, i32, i8, ptr, i16, ptr, ptr, i16 }
%struct.slurmdb_job_cond_t = type { ptr, ptr, ptr, ptr, i32, i32, i32, i32, i32, ptr, ptr, ptr, i32, i32, ptr, ptr, ptr, ptr, ptr, ptr, ptr, i32, i32, i64, i64, ptr, ptr, ptr }
%struct.slurmdb_job_rec_t = type { ptr, ptr, i32, i32, i32, i32, ptr, i32, ptr, ptr, ptr, ptr, i64, i32, ptr, i32, i64, i64, ptr, i32, ptr, ptr, i32, ptr, i32, i32, i32, i32, ptr, ptr, ptr, ptr, ptr, ptr, i32, i32, ptr, i32, i64, i32, i16, i32, ptr, ptr, i16, i32, i64, i32, i32, ptr, ptr, ptr, ptr, i64, ptr, i32, ptr, i64, i64, i32, i64, i64, ptr, ptr, i32, ptr, ptr, i64, i64, ptr, i32, ptr }
%struct.slurm_selected_step_t = type { ptr, i32, i32, %struct.slurm_step_id_msg }
%struct.slurm_step_id_msg = type { i64, i32, i32, i32 }

@plugin_type = external constant [0 x i8], align 1
@slurm_conf = external global %struct.slurm_conf_t, align 8
@acct_db_conn = external global ptr, align 8
@.str.107 = private unnamed_addr constant [7 x i8] c"\0A%x %X\00", align 1
@.str.108 = private unnamed_addr constant [6 x i8] c"%x %X\00", align 1
@.str.109 = private unnamed_addr constant [14 x i8] c"%s %s: %s: %s\00", align 1

; Function Attrs: nounwind uwtable
define dso_local void @bb_update_system_comment(ptr noundef %0, ptr noundef %1, ptr noundef %2, i1 noundef zeroext %3) #0 {
  %5 = alloca ptr, align 8
  %6 = alloca ptr, align 8
  %7 = alloca ptr, align 8
  %8 = alloca i8, align 1
  %9 = alloca ptr, align 8
  %10 = alloca i32, align 4
  %11 = alloca %struct.slurmdb_job_cond_t, align 8
  %12 = alloca %struct.slurmdb_job_rec_t, align 8
  %13 = alloca %struct.slurm_selected_step_t, align 8
  %14 = alloca ptr, align 8
  store ptr %0, ptr %5, align 8
  store ptr %1, ptr %6, align 8
  store ptr %2, ptr %7, align 8
  %15 = zext i1 %3 to i8
  store i8 %15, ptr %8, align 1
  call void @llvm.lifetime.start.p0(i64 8, ptr %9) #9
  store ptr null, ptr %9, align 8
  %16 = load ptr, ptr %5, align 8
  %17 = getelementptr inbounds nuw %struct.job_record, ptr %16, i32 0, i32 131
  %18 = load ptr, ptr %17, align 8
  %19 = icmp ne ptr %18, null
  br i1 %19, label %20, label %27

20:                                               ; preds = %4
  %21 = load ptr, ptr %5, align 8
  %22 = getelementptr inbounds nuw %struct.job_record, ptr %21, i32 0, i32 131
  %23 = load ptr, ptr %22, align 8
  %24 = call i64 @strlen(ptr noundef %23) #11
  %25 = icmp uge i64 %24, 1024
  br i1 %25, label %26, label %27

26:                                               ; preds = %20
  store i32 1, ptr %10, align 4
  br label %108

27:                                               ; preds = %20, %4
  %28 = load ptr, ptr %5, align 8
  %29 = getelementptr inbounds nuw %struct.job_record, ptr %28, i32 0, i32 131
  %30 = load ptr, ptr %29, align 8
  %31 = icmp ne ptr %30, null
  br i1 %31, label %32, label %33

32:                                               ; preds = %27
  call void @_xstrftimecat(ptr noundef %9, ptr noundef @.str.107)
  br label %34

33:                                               ; preds = %27
  call void @_xstrftimecat(ptr noundef %9, ptr noundef @.str.108)
  br label %34

34:                                               ; preds = %33, %32
  %35 = load ptr, ptr %5, align 8
  %36 = getelementptr inbounds nuw %struct.job_record, ptr %35, i32 0, i32 131
  %37 = load ptr, ptr %9, align 8
  %38 = load ptr, ptr %6, align 8
  %39 = load ptr, ptr %7, align 8
  call void (ptr, ptr, ...) @_xstrfmtcat(ptr noundef %36, ptr noundef @.str.109, ptr noundef %37, ptr noundef @plugin_type, ptr noundef %38, ptr noundef %39)
  call void @slurm_xfree(ptr noundef %9)
  %40 = load i8, ptr %8, align 1, !range !17, !noundef !18
  %41 = trunc i8 %40 to i1
  br i1 %41, label %42, label %107

42:                                               ; preds = %34
  call void @llvm.lifetime.start.p0(i64 192, ptr %11) #9
  call void @llvm.lifetime.start.p0(i64 512, ptr %12) #9
  call void @llvm.lifetime.start.p0(i64 40, ptr %13) #9
  call void @llvm.lifetime.start.p0(i64 8, ptr %14) #9
  call void @llvm.memset.p0.i64(ptr align 8 %11, i8 0, i64 192, i1 false)
  call void @llvm.memset.p0.i64(ptr align 8 %12, i8 0, i64 512, i1 false)
  call void @llvm.memset.p0.i64(ptr align 8 %13, i8 0, i64 40, i1 false)
  %43 = getelementptr inbounds nuw %struct.slurm_selected_step_t, ptr %13, i32 0, i32 1
  store i32 -2, ptr %43, align 8
  %44 = load ptr, ptr %5, align 8
  %45 = getelementptr inbounds nuw %struct.job_record, ptr %44, i32 0, i32 53
  %46 = load i32, ptr %45, align 8
  %47 = getelementptr inbounds nuw %struct.slurm_selected_step_t, ptr %13, i32 0, i32 3
  %48 = getelementptr inbounds nuw %struct.slurm_step_id_msg, ptr %47, i32 0, i32 1
  store i32 %46, ptr %48, align 8
  %49 = getelementptr inbounds nuw %struct.slurm_selected_step_t, ptr %13, i32 0, i32 2
  store i32 -2, ptr %49, align 4
  %50 = getelementptr inbounds nuw %struct.slurm_selected_step_t, ptr %13, i32 0, i32 3
  %51 = getelementptr inbounds nuw %struct.slurm_step_id_msg, ptr %50, i32 0, i32 3
  store i32 -2, ptr %51, align 8
  %52 = getelementptr inbounds nuw %struct.slurm_selected_step_t, ptr %13, i32 0, i32 3
  %53 = getelementptr inbounds nuw %struct.slurm_step_id_msg, ptr %52, i32 0, i32 2
  store i32 -2, ptr %53, align 4
  %54 = call ptr @list_create(ptr noundef null)
  %55 = getelementptr inbounds nuw %struct.slurmdb_job_cond_t, ptr %11, i32 0, i32 20
  store ptr %54, ptr %55, align 8
  %56 = getelementptr inbounds nuw %struct.slurmdb_job_cond_t, ptr %11, i32 0, i32 20
  %57 = load ptr, ptr %56, align 8
  call void @list_append(ptr noundef %57, ptr noundef %13)
  %58 = getelementptr inbounds nuw %struct.slurmdb_job_cond_t, ptr %11, i32 0, i32 8
  store i32 192, ptr %58, align 8
  %59 = call ptr @list_create(ptr noundef null)
  %60 = getelementptr inbounds nuw %struct.slurmdb_job_cond_t, ptr %11, i32 0, i32 2
  store ptr %59, ptr %60, align 8
  %61 = getelementptr inbounds nuw %struct.slurmdb_job_cond_t, ptr %11, i32 0, i32 2
  %62 = load ptr, ptr %61, align 8
  %63 = load ptr, ptr getelementptr inbounds nuw (%struct.slurm_conf_t, ptr @slurm_conf, i32 0, i32 31), align 8
  call void @list_append(ptr noundef %62, ptr noundef %63)
  %64 = load ptr, ptr %5, align 8
  %65 = getelementptr inbounds nuw %struct.job_record, ptr %64, i32 0, i32 30
  %66 = load ptr, ptr %65, align 8
  %67 = getelementptr inbounds nuw %struct.job_details_t, ptr %66, i32 0, i32 74
  %68 = load i64, ptr %67, align 8
  %69 = getelementptr inbounds nuw %struct.slurmdb_job_cond_t, ptr %11, i32 0, i32 24
  store i64 %68, ptr %69, align 8
  %70 = load ptr, ptr %5, align 8
  %71 = getelementptr inbounds nuw %struct.job_record, ptr %70, i32 0, i32 131
  %72 = load ptr, ptr %71, align 8
  %73 = getelementptr inbounds nuw %struct.slurmdb_job_rec_t, ptr %12, i32 0, i32 56
  store ptr %72, ptr %73, align 8
  %74 = load ptr, ptr @acct_db_conn, align 8
  %75 = load i32, ptr getelementptr inbounds nuw (%struct.slurm_conf_t, ptr @slurm_conf, i32 0, i32 173), align 8
  %76 = call ptr @acct_storage_g_modify_job(ptr noundef %74, i32 noundef %75, ptr noundef %11, ptr noundef %12)
  store ptr %76, ptr %14, align 8
  br label %77

77:                                               ; preds = %42
  %78 = getelementptr inbounds nuw %struct.slurmdb_job_cond_t, ptr %11, i32 0, i32 2
  %79 = load ptr, ptr %78, align 8
  %80 = icmp ne ptr %79, null
  br i1 %80, label %81, label %84

81:                                               ; preds = %77
  %82 = getelementptr inbounds nuw %struct.slurmdb_job_cond_t, ptr %11, i32 0, i32 2
  %83 = load ptr, ptr %82, align 8
  call void @list_destroy(ptr noundef %83)
  br label %84

84:                                               ; preds = %81, %77
  %85 = getelementptr inbounds nuw %struct.slurmdb_job_cond_t, ptr %11, i32 0, i32 2
  store ptr null, ptr %85, align 8
  br label %86

86:                                               ; preds = %84
  br label %87

87:                                               ; preds = %86
  br label %88

88:                                               ; preds = %87
  %89 = getelementptr inbounds nuw %struct.slurmdb_job_cond_t, ptr %11, i32 0, i32 20
  %90 = load ptr, ptr %89, align 8
  %91 = icmp ne ptr %90, null
  br i1 %91, label %92, label %95

92:                                               ; preds = %88
  %93 = getelementptr inbounds nuw %struct.slurmdb_job_cond_t, ptr %11, i32 0, i32 20
  %94 = load ptr, ptr %93, align 8
  call void @list_destroy(ptr noundef %94)
  br label %95

95:                                               ; preds = %92, %88
  %96 = getelementptr inbounds nuw %struct.slurmdb_job_cond_t, ptr %11, i32 0, i32 20
  store ptr null, ptr %96, align 8
  br label %97

97:                                               ; preds = %95
  br label %98

98:                                               ; preds = %97
  br label %99

99:                                               ; preds = %98
  %100 = load ptr, ptr %14, align 8
  %101 = icmp ne ptr %100, null
  br i1 %101, label %102, label %104

102:                                              ; preds = %99
  %103 = load ptr, ptr %14, align 8
  call void @list_destroy(ptr noundef %103)
  br label %104

104:                                              ; preds = %102, %99
  store ptr null, ptr %14, align 8
  br label %105

105:                                              ; preds = %104
  br label %106

106:                                              ; preds = %105
  call void @llvm.lifetime.end.p0(i64 8, ptr %14) #9
  call void @llvm.lifetime.end.p0(i64 40, ptr %13) #9
  call void @llvm.lifetime.end.p0(i64 512, ptr %12) #9
  call void @llvm.lifetime.end.p0(i64 192, ptr %11) #9
  br label %107

107:                                              ; preds = %106, %34
  store i32 0, ptr %10, align 4
  br label %108

108:                                              ; preds = %107, %26
  call void @llvm.lifetime.end.p0(i64 8, ptr %9) #9
  %109 = load i32, ptr %10, align 4
  switch i32 %109, label %111 [
    i32 0, label %110
    i32 1, label %110
  ]

110:                                              ; preds = %108, %108
  ret void

111:                                              ; preds = %108
  unreachable
}