; Function Attrs: nounwind uwtable
define dso_local void @bb_update_system_comment(ptr noundef %0, ptr noundef %1, ptr noundef %2, i1 noundef zeroext %3) local_unnamed_addr #0 {
  %5 = alloca ptr, align 8
  %6 = alloca %struct.slurmdb_job_cond_t, align 8
  %7 = alloca %struct.slurmdb_job_rec_t, align 8
  %8 = alloca %struct.slurm_selected_step_t, align 8
  call void @llvm.lifetime.start.p0(i64 8, ptr nonnull %5) #17
  store ptr null, ptr %5, align 8
  %9 = getelementptr inbounds nuw i8, ptr %0, i64 960
  %10 = load ptr, ptr %9, align 8
  %.not = icmp eq ptr %10, null
  br i1 %.not, label %14, label %11

11:                                               ; preds = %4
  %12 = tail call i64 @strlen(ptr noundef nonnull dereferenceable(1) %10) #19
  %13 = icmp ugt i64 %12, 1023
  br i1 %13, label %48, label %14

14:                                               ; preds = %4, %11
  %.str.108.sink = phi ptr [ @.str.107, %11 ], [ @.str.108, %4 ]
  call void @_xstrftimecat(ptr noundef nonnull %5, ptr noundef nonnull %.str.108.sink) #17
  %15 = load ptr, ptr %5, align 8
  call void (ptr, ptr, ...) @_xstrfmtcat(ptr noundef nonnull %9, ptr noundef nonnull @.str.109, ptr noundef %15, ptr noundef nonnull @plugin_type, ptr noundef %1, ptr noundef %2) #17
  call void @slurm_xfree(ptr noundef nonnull %5) #17
  br i1 %3, label %16, label %48

16:                                               ; preds = %14
  call void @llvm.lifetime.start.p0(i64 192, ptr nonnull %6) #17
  call void @llvm.lifetime.start.p0(i64 512, ptr nonnull %7) #17
  call void @llvm.lifetime.start.p0(i64 40, ptr nonnull %8) #17
  call void @llvm.memset.p0.i64(ptr noundef nonnull align 8 dereferenceable(192) %6, i8 0, i64 192, i1 false)
  call void @llvm.memset.p0.i64(ptr noundef nonnull align 8 dereferenceable(512) %7, i8 0, i64 512, i1 false)
  call void @llvm.memset.p0.i64(ptr noundef nonnull align 8 dereferenceable(40) %8, i8 0, i64 40, i1 false)
  %17 = getelementptr inbounds nuw i8, ptr %8, i64 8
  store i32 -2, ptr %17, align 8
  %18 = getelementptr inbounds nuw i8, ptr %0, i64 392
  %19 = load i32, ptr %18, align 8
  %20 = getelementptr inbounds nuw i8, ptr %8, i64 24
  store i32 %19, ptr %20, align 8
  %21 = getelementptr inbounds nuw i8, ptr %8, i64 12
  store i32 -2, ptr %21, align 4
  %22 = getelementptr inbounds nuw i8, ptr %8, i64 32
  store i32 -2, ptr %22, align 8
  %23 = getelementptr inbounds nuw i8, ptr %8, i64 28
  store i32 -2, ptr %23, align 4
  %24 = call ptr @list_create(ptr noundef null) #17
  %25 = getelementptr inbounds nuw i8, ptr %6, i64 136
  store ptr %24, ptr %25, align 8
  call void @list_append(ptr noundef %24, ptr noundef nonnull %8) #17
  %26 = getelementptr inbounds nuw i8, ptr %6, i64 48
  store i32 192, ptr %26, align 8
  %27 = call ptr @list_create(ptr noundef null) #17
  %28 = getelementptr inbounds nuw i8, ptr %6, i64 16
  store ptr %27, ptr %28, align 8
  %29 = load ptr, ptr getelementptr inbounds nuw (i8, ptr @slurm_conf, i64 248), align 8
  call void @list_append(ptr noundef %27, ptr noundef %29) #17
  %30 = getelementptr inbounds nuw i8, ptr %0, i64 216
  %31 = load ptr, ptr %30, align 8
  %32 = getelementptr inbounds nuw i8, ptr %31, i64 464
  %33 = load i64, ptr %32, align 8
  %34 = getelementptr inbounds nuw i8, ptr %6, i64 160
  store i64 %33, ptr %34, align 8
  %35 = load ptr, ptr %9, align 8
  %36 = getelementptr inbounds nuw i8, ptr %7, i64 384
  store ptr %35, ptr %36, align 8
  %37 = load ptr, ptr @acct_db_conn, align 8
  %38 = load i32, ptr getelementptr inbounds nuw (i8, ptr @slurm_conf, i64 1152), align 8
  %39 = call ptr @acct_storage_g_modify_job(ptr noundef %37, i32 noundef %38, ptr noundef nonnull %6, ptr noundef nonnull %7) #17
  %40 = load ptr, ptr %28, align 8
  %.not15 = icmp eq ptr %40, null
  br i1 %.not15, label %42, label %41

41:                                               ; preds = %16
  call void @list_destroy(ptr noundef nonnull %40) #17
  br label %42

42:                                               ; preds = %41, %16
  store ptr null, ptr %28, align 8
  %43 = load ptr, ptr %25, align 8
  %.not16 = icmp eq ptr %43, null
  br i1 %.not16, label %45, label %44

44:                                               ; preds = %42
  call void @list_destroy(ptr noundef nonnull %43) #17
  br label %45

45:                                               ; preds = %44, %42
  store ptr null, ptr %25, align 8
  %.not17 = icmp eq ptr %39, null
  br i1 %.not17, label %47, label %46

46:                                               ; preds = %45
  call void @list_destroy(ptr noundef nonnull %39) #17
  br label %47

47:                                               ; preds = %46, %45
  call void @llvm.lifetime.end.p0(i64 40, ptr nonnull %8) #17
  call void @llvm.lifetime.end.p0(i64 512, ptr nonnull %7) #17
  call void @llvm.lifetime.end.p0(i64 192, ptr nonnull %6) #17
  br label %48

48:                                               ; preds = %14, %47, %11
  call void @llvm.lifetime.end.p0(i64 8, ptr nonnull %5) #17
  ret void
}